; Function Attrs: mustprogress uwtable
define hidden void @_ZN4cvc58internal12TheoryEngine22initializeProofCheckerEPNS0_12ProofCheckerE(ptr nocapture noundef nonnull readonly align 8 dereferenceable(1448) %this, ptr noundef %pc) local_unnamed_addr #3 align 2 {
entry:
  %id = alloca i32, align 4
  store i32 0, ptr %id, align 4
  %d_theoryTable = getelementptr inbounds i8, ptr %this, i64 24
  br label %for.body

for.body:                                         ; preds = %entry, %for.inc
  %0 = phi i32 [ 0, %entry ], [ %.pr, %for.inc ]
  %idxprom = zext i32 %0 to i64
  %arrayidx = getelementptr inbounds [14 x ptr], ptr %d_theoryTable, i64 0, i64 %idxprom
  %1 = load ptr, ptr %arrayidx, align 8
  %vtable = load ptr, ptr %1, align 8
  %vfn = getelementptr inbounds i8, ptr %vtable, i64 72
  %2 = load ptr, ptr %vfn, align 8
  %call = call noundef ptr %2(ptr noundef nonnull align 8 dereferenceable(408) %1)
  %tobool.not = icmp eq ptr %call, null
  br i1 %tobool.not, label %for.inc, label %if.then

if.then:                                          ; preds = %for.body
  %vtable2 = load ptr, ptr %call, align 8
  %vfn3 = getelementptr inbounds i8, ptr %vtable2, i64 16
  %3 = load ptr, ptr %vfn3, align 8
  call void %3(ptr noundef nonnull align 8 dereferenceable(8) %call, ptr noundef %pc)
  br label %for.inc

for.inc:                                          ; preds = %for.body, %if.then
  %call4 = call noundef nonnull align 4 dereferenceable(4) ptr @_ZN4cvc58internal6theoryppERNS1_8TheoryIdE(ptr noundef nonnull align 4 dereferenceable(4) %id)
  %.pr = load i32, ptr %id, align 4
  %cmp = icmp slt i32 %.pr, 14
  br i1 %cmp, label %for.body, label %for.end, !llvm.loop !218

for.end:                                          ; preds = %for.inc
  ret void
}